target datalayout = "e-m:e-p270:32:32-p271:32:32-p272:64:64-i64:64-i128:128-f80:128-n8:16:32:64-S128"
target triple = "x86_64-pc-linux-gnu"

%struct._value_string_ext = type { ptr, i32, i32, ptr, ptr }
%struct._wmem_tree_key_t = type { i32, ptr }
%struct.nstime_t = type { i64, i32 }
%struct._packet_info = type { ptr, ptr, i32, i32, %struct.nstime_t, %struct.nstime_t, %struct.nstime_t, i8, ptr, ptr, ptr, ptr, %struct._address, %struct._address, %struct._address, %struct._address, %struct._address, %struct._address, i32, ptr, i8, [3 x i8], %struct.anon, i32, i32, i32, i32, ptr, i8, ptr, ptr, i16, i16, i32, i32, i16, i32, i32, ptr, ptr, ptr, i8, i8, i16, i16, i16, i32, i16, i16, ptr, ptr, ptr, ptr, ptr, i32, i32 }
%struct._address = type { i32, i32, ptr, ptr }
%struct.anon = type { i8, [3 x i8] }
%struct._frame_data = type <{ i32, i32, i32, i32, i32, [4 x i8], i64, ptr, ptr, ptr, i8, i16, [5 x i8], %struct.nstime_t, %struct.nstime_t, i32, i32 }>
%struct._bluetooth_data_t = type { i32, i32, ptr, ptr, ptr, ptr, ptr, ptr, ptr, ptr, ptr, ptr, ptr, i32, %union.anon }
%union.anon = type { ptr }
%struct._bluetooth_hci_summary_tap_t = type { i32, i32, i16, i8, i8, i8, i8, i8, i8, ptr, i32 }
%struct._device_role_t = type { i32, i32 }

@hf_bthci_evt_status = internal global i32 0, align 4
@bthci_cmd_status_vals_ext = external global %struct._value_string_ext, align 8
@hf_bthci_evt_bd_addr = internal global i32 0, align 4
@hf_bthci_evt_role = internal global i32 0, align 4
@.str.1819 = private unnamed_addr constant [15 x i8] c"Unknown 0x%02x\00", align 1
@bluetooth_hci_summary_tap = external global i32, align 4

; Function Attrs: null_pointer_is_valid sspstrong uwtable
define internal void @send_hci_summary_status_tap(i8 noundef zeroext %0, ptr noundef %1, ptr noundef %2) #1 {
  %4 = alloca i8, align 1
  %5 = alloca ptr, align 8
  %6 = alloca ptr, align 8
  %7 = alloca ptr, align 8
  store i8 %0, ptr %4, align 1
  store ptr %1, ptr %5, align 8
  store ptr %2, ptr %6, align 8
  %8 = load i32, ptr @bluetooth_hci_summary_tap, align 4
  %9 = call zeroext i1 @have_tap_listener(i32 noundef %8)
  br i1 %9, label %10, label %47

10:                                               ; preds = %3
  call void @llvm.lifetime.start.p0(i64 8, ptr %7) #11
  %11 = load ptr, ptr %5, align 8
  %12 = getelementptr inbounds nuw %struct._packet_info, ptr %11, i32 0, i32 51
  %13 = load ptr, ptr %12, align 8
  %14 = call noalias ptr @wmem_alloc(ptr noundef %13, i64 noundef 32) #13
  store ptr %14, ptr %7, align 8
  %15 = load ptr, ptr %6, align 8
  %16 = getelementptr inbounds nuw %struct._bluetooth_data_t, ptr %15, i32 0, i32 0
  %17 = load i32, ptr %16, align 8
  %18 = load ptr, ptr %7, align 8
  %19 = getelementptr inbounds nuw %struct._bluetooth_hci_summary_tap_t, ptr %18, i32 0, i32 0
  store i32 %17, ptr %19, align 8
  %20 = load ptr, ptr %6, align 8
  %21 = getelementptr inbounds nuw %struct._bluetooth_data_t, ptr %20, i32 0, i32 1
  %22 = load i32, ptr %21, align 4
  %23 = load ptr, ptr %7, align 8
  %24 = getelementptr inbounds nuw %struct._bluetooth_hci_summary_tap_t, ptr %23, i32 0, i32 1
  store i32 %22, ptr %24, align 4
  %25 = load ptr, ptr %7, align 8
  %26 = getelementptr inbounds nuw %struct._bluetooth_hci_summary_tap_t, ptr %25, i32 0, i32 10
  store i32 7, ptr %26, align 8
  %27 = load i8, ptr %4, align 1
  %28 = load ptr, ptr %7, align 8
  %29 = getelementptr inbounds nuw %struct._bluetooth_hci_summary_tap_t, ptr %28, i32 0, i32 6
  store i8 %27, ptr %29, align 1
  %30 = load i8, ptr %4, align 1
  %31 = zext i8 %30 to i32
  %32 = call ptr @try_val_to_str_ext(i32 noundef %31, ptr noundef @bthci_cmd_status_vals_ext)
  %33 = icmp ne ptr %32, null
  br i1 %33, label %34, label %40

34:                                               ; preds = %10
  %35 = load i8, ptr %4, align 1
  %36 = zext i8 %35 to i32
  %37 = call ptr @val_to_str_ext(i32 noundef %36, ptr noundef @bthci_cmd_status_vals_ext, ptr noundef @.str.1819)
  %38 = load ptr, ptr %7, align 8
  %39 = getelementptr inbounds nuw %struct._bluetooth_hci_summary_tap_t, ptr %38, i32 0, i32 9
  store ptr %37, ptr %39, align 8
  br label %43

40:                                               ; preds = %10
  %41 = load ptr, ptr %7, align 8
  %42 = getelementptr inbounds nuw %struct._bluetooth_hci_summary_tap_t, ptr %41, i32 0, i32 9
  store ptr null, ptr %42, align 8
  br label %43

43:                                               ; preds = %40, %34
  %44 = load i32, ptr @bluetooth_hci_summary_tap, align 4
  %45 = load ptr, ptr %5, align 8
  %46 = load ptr, ptr %7, align 8
  call void @tap_queue_packet(i32 noundef %44, ptr noundef %45, ptr noundef %46)
  call void @llvm.lifetime.end.p0(i64 8, ptr %7) #11
  br label %47

47:                                               ; preds = %43, %3
  ret void
}

; Function Attrs: null_pointer_is_valid sspstrong uwtable
define internal i32 @dissect_bthci_evt_role_change(ptr noundef %0, i32 noundef %1, ptr noundef %2, ptr noundef %3, ptr noundef %4) #1 {
  %6 = alloca ptr, align 8
  %7 = alloca i32, align 4
  %8 = alloca ptr, align 8
  %9 = alloca ptr, align 8
  %10 = alloca ptr, align 8
  %11 = alloca [6 x i8], align 1
  %12 = alloca i8, align 1
  %13 = alloca i8, align 1
  %14 = alloca i32, align 4
  %15 = alloca i32, align 4
  %16 = alloca i32, align 4
  %17 = alloca i32, align 4
  %18 = alloca i32, align 4
  %19 = alloca [6 x %struct._wmem_tree_key_t], align 16
  %20 = alloca ptr, align 8
  store ptr %0, ptr %6, align 8
  store i32 %1, ptr %7, align 4
  store ptr %2, ptr %8, align 8
  store ptr %3, ptr %9, align 8
  store ptr %4, ptr %10, align 8
  call void @llvm.lifetime.start.p0(i64 6, ptr %11) #11
  call void @llvm.lifetime.start.p0(i64 1, ptr %12) #11
  call void @llvm.lifetime.start.p0(i64 1, ptr %13) #11
  %21 = load ptr, ptr %9, align 8
  %22 = load i32, ptr @hf_bthci_evt_status, align 4
  %23 = load ptr, ptr %6, align 8
  %24 = load i32, ptr %7, align 4
  %25 = call ptr @proto_tree_add_item(ptr noundef %21, i32 noundef %22, ptr noundef %23, i32 noundef %24, i32 noundef 1, i32 noundef -2147483648)
  %26 = load ptr, ptr %6, align 8
  %27 = load i32, ptr %7, align 4
  %28 = call zeroext i8 @tvb_get_uint8(ptr noundef %26, i32 noundef %27)
  store i8 %28, ptr %13, align 1
  %29 = load i8, ptr %13, align 1
  %30 = load ptr, ptr %8, align 8
  %31 = load ptr, ptr %10, align 8
  call void @send_hci_summary_status_tap(i8 noundef zeroext %29, ptr noundef %30, ptr noundef %31)
  %32 = load i32, ptr %7, align 4
  %33 = add i32 %32, 1
  store i32 %33, ptr %7, align 4
  %34 = load i32, ptr @hf_bthci_evt_bd_addr, align 4
  %35 = load ptr, ptr %8, align 8
  %36 = load ptr, ptr %9, align 8
  %37 = load ptr, ptr %6, align 8
  %38 = load i32, ptr %7, align 4
  %39 = load ptr, ptr %10, align 8
  %40 = getelementptr inbounds nuw %struct._bluetooth_data_t, ptr %39, i32 0, i32 0
  %41 = load i32, ptr %40, align 8
  %42 = load ptr, ptr %10, align 8
  %43 = getelementptr inbounds nuw %struct._bluetooth_data_t, ptr %42, i32 0, i32 1
  %44 = load i32, ptr %43, align 4
  %45 = getelementptr inbounds [6 x i8], ptr %11, i64 0, i64 0
  %46 = call i32 @dissect_bd_addr(i32 noundef %34, ptr noundef %35, ptr noundef %36, ptr noundef %37, i32 noundef %38, i1 noundef zeroext false, i32 noundef %41, i32 noundef %44, ptr noundef %45)
  store i32 %46, ptr %7, align 4
  %47 = load ptr, ptr %9, align 8
  %48 = load i32, ptr @hf_bthci_evt_role, align 4
  %49 = load ptr, ptr %6, align 8
  %50 = load i32, ptr %7, align 4
  %51 = call ptr @proto_tree_add_item(ptr noundef %47, i32 noundef %48, ptr noundef %49, i32 noundef %50, i32 noundef 1, i32 noundef -2147483648)
  %52 = load ptr, ptr %6, align 8
  %53 = load i32, ptr %7, align 4
  %54 = call zeroext i8 @tvb_get_uint8(ptr noundef %52, i32 noundef %53)
  store i8 %54, ptr %12, align 1
  %55 = load i32, ptr %7, align 4
  %56 = add i32 %55, 1
  store i32 %56, ptr %7, align 4
  %57 = load ptr, ptr %8, align 8
  %58 = getelementptr inbounds nuw %struct._packet_info, ptr %57, i32 0, i32 8
  %59 = load ptr, ptr %58, align 8
  %60 = getelementptr inbounds nuw %struct._frame_data, ptr %59, i32 0, i32 11
  %61 = load i16, ptr %60, align 1
  %62 = lshr i16 %61, 3
  %63 = and i16 %62, 1
  %64 = zext i16 %63 to i32
  %65 = icmp ne i32 %64, 0
  br i1 %65, label %158, label %66

66:                                               ; preds = %5
  %67 = load i8, ptr %13, align 1
  %68 = zext i8 %67 to i32
  %69 = icmp eq i32 %68, 0
  br i1 %69, label %70, label %158

70:                                               ; preds = %66
  call void @llvm.lifetime.start.p0(i64 4, ptr %14) #11
  call void @llvm.lifetime.start.p0(i64 4, ptr %15) #11
  call void @llvm.lifetime.start.p0(i64 4, ptr %16) #11
  call void @llvm.lifetime.start.p0(i64 4, ptr %17) #11
  call void @llvm.lifetime.start.p0(i64 4, ptr %18) #11
  call void @llvm.lifetime.start.p0(i64 96, ptr %19) #11
  call void @llvm.lifetime.start.p0(i64 8, ptr %20) #11
  %71 = load ptr, ptr %10, align 8
  %72 = getelementptr inbounds nuw %struct._bluetooth_data_t, ptr %71, i32 0, i32 0
  %73 = load i32, ptr %72, align 8
  store i32 %73, ptr %14, align 4
  %74 = load ptr, ptr %10, align 8
  %75 = getelementptr inbounds nuw %struct._bluetooth_data_t, ptr %74, i32 0, i32 1
  %76 = load i32, ptr %75, align 4
  store i32 %76, ptr %15, align 4
  %77 = load ptr, ptr %8, align 8
  %78 = getelementptr inbounds nuw %struct._packet_info, ptr %77, i32 0, i32 3
  %79 = load i32, ptr %78, align 4
  store i32 %79, ptr %18, align 4
  %80 = getelementptr [6 x i8], ptr %11, i64 0, i64 0
  %81 = load i8, ptr %80, align 1
  %82 = zext i8 %81 to i32
  %83 = shl i32 %82, 16
  %84 = getelementptr [6 x i8], ptr %11, i64 0, i64 1
  %85 = load i8, ptr %84, align 1
  %86 = zext i8 %85 to i32
  %87 = shl i32 %86, 8
  %88 = or i32 %83, %87
  %89 = getelementptr [6 x i8], ptr %11, i64 0, i64 2
  %90 = load i8, ptr %89, align 1
  %91 = zext i8 %90 to i32
  %92 = or i32 %88, %91
  store i32 %92, ptr %16, align 4
  %93 = getelementptr [6 x i8], ptr %11, i64 0, i64 3
  %94 = load i8, ptr %93, align 1
  %95 = zext i8 %94 to i32
  %96 = shl i32 %95, 16
  %97 = getelementptr [6 x i8], ptr %11, i64 0, i64 4
  %98 = load i8, ptr %97, align 1
  %99 = zext i8 %98 to i32
  %100 = shl i32 %99, 8
  %101 = or i32 %96, %100
  %102 = getelementptr [6 x i8], ptr %11, i64 0, i64 5
  %103 = load i8, ptr %102, align 1
  %104 = zext i8 %103 to i32
  %105 = or i32 %101, %104
  store i32 %105, ptr %17, align 4
  %106 = getelementptr [6 x %struct._wmem_tree_key_t], ptr %19, i64 0, i64 0
  %107 = getelementptr inbounds nuw %struct._wmem_tree_key_t, ptr %106, i32 0, i32 0
  store i32 1, ptr %107, align 16
  %108 = getelementptr [6 x %struct._wmem_tree_key_t], ptr %19, i64 0, i64 0
  %109 = getelementptr inbounds nuw %struct._wmem_tree_key_t, ptr %108, i32 0, i32 1
  store ptr %14, ptr %109, align 8
  %110 = getelementptr [6 x %struct._wmem_tree_key_t], ptr %19, i64 0, i64 1
  %111 = getelementptr inbounds nuw %struct._wmem_tree_key_t, ptr %110, i32 0, i32 0
  store i32 1, ptr %111, align 16
  %112 = getelementptr [6 x %struct._wmem_tree_key_t], ptr %19, i64 0, i64 1
  %113 = getelementptr inbounds nuw %struct._wmem_tree_key_t, ptr %112, i32 0, i32 1
  store ptr %15, ptr %113, align 8
  %114 = getelementptr [6 x %struct._wmem_tree_key_t], ptr %19, i64 0, i64 2
  %115 = getelementptr inbounds nuw %struct._wmem_tree_key_t, ptr %114, i32 0, i32 0
  store i32 1, ptr %115, align 16
  %116 = getelementptr [6 x %struct._wmem_tree_key_t], ptr %19, i64 0, i64 2
  %117 = getelementptr inbounds nuw %struct._wmem_tree_key_t, ptr %116, i32 0, i32 1
  store ptr %17, ptr %117, align 8
  %118 = getelementptr [6 x %struct._wmem_tree_key_t], ptr %19, i64 0, i64 3
  %119 = getelementptr inbounds nuw %struct._wmem_tree_key_t, ptr %118, i32 0, i32 0
  store i32 1, ptr %119, align 16
  %120 = getelementptr [6 x %struct._wmem_tree_key_t], ptr %19, i64 0, i64 3
  %121 = getelementptr inbounds nuw %struct._wmem_tree_key_t, ptr %120, i32 0, i32 1
  store ptr %16, ptr %121, align 8
  %122 = getelementptr [6 x %struct._wmem_tree_key_t], ptr %19, i64 0, i64 4
  %123 = getelementptr inbounds nuw %struct._wmem_tree_key_t, ptr %122, i32 0, i32 0
  store i32 1, ptr %123, align 16
  %124 = getelementptr [6 x %struct._wmem_tree_key_t], ptr %19, i64 0, i64 4
  %125 = getelementptr inbounds nuw %struct._wmem_tree_key_t, ptr %124, i32 0, i32 1
  store ptr %18, ptr %125, align 8
  %126 = getelementptr [6 x %struct._wmem_tree_key_t], ptr %19, i64 0, i64 5
  %127 = getelementptr inbounds nuw %struct._wmem_tree_key_t, ptr %126, i32 0, i32 0
  store i32 0, ptr %127, align 16
  %128 = getelementptr [6 x %struct._wmem_tree_key_t], ptr %19, i64 0, i64 5
  %129 = getelementptr inbounds nuw %struct._wmem_tree_key_t, ptr %128, i32 0, i32 1
  store ptr null, ptr %129, align 8
  %130 = call ptr @wmem_file_scope()
  %131 = call noalias ptr @wmem_alloc(ptr noundef %130, i64 noundef 8) #13
  store ptr %131, ptr %20, align 8
  %132 = load i32, ptr %18, align 4
  %133 = load ptr, ptr %20, align 8
  %134 = getelementptr inbounds nuw %struct._device_role_t, ptr %133, i32 0, i32 1
  store i32 %132, ptr %134, align 4
  %135 = load i8, ptr %12, align 1
  %136 = zext i8 %135 to i32
  %137 = icmp eq i32 %136, 0
  br i1 %137, label %138, label %141

138:                                              ; preds = %70
  %139 = load ptr, ptr %20, align 8
  %140 = getelementptr inbounds nuw %struct._device_role_t, ptr %139, i32 0, i32 0
  store i32 2, ptr %140, align 4
  br label %152

141:                                              ; preds = %70
  %142 = load i8, ptr %12, align 1
  %143 = zext i8 %142 to i32
  %144 = icmp eq i32 %143, 1
  br i1 %144, label %145, label %148

145:                                              ; preds = %141
  %146 = load ptr, ptr %20, align 8
  %147 = getelementptr inbounds nuw %struct._device_role_t, ptr %146, i32 0, i32 0
  store i32 1, ptr %147, align 4
  br label %151

148:                                              ; preds = %141
  %149 = load ptr, ptr %20, align 8
  %150 = getelementptr inbounds nuw %struct._device_role_t, ptr %149, i32 0, i32 0
  store i32 0, ptr %150, align 4
  br label %151

151:                                              ; preds = %148, %145
  br label %152

152:                                              ; preds = %151, %138
  %153 = load ptr, ptr %10, align 8
  %154 = getelementptr inbounds nuw %struct._bluetooth_data_t, ptr %153, i32 0, i32 9
  %155 = load ptr, ptr %154, align 8
  %156 = getelementptr inbounds [6 x %struct._wmem_tree_key_t], ptr %19, i64 0, i64 0
  %157 = load ptr, ptr %20, align 8
  call void @wmem_tree_insert32_array(ptr noundef %155, ptr noundef %156, ptr noundef %157)
  call void @llvm.lifetime.end.p0(i64 8, ptr %20) #11
  call void @llvm.lifetime.end.p0(i64 96, ptr %19) #11
  call void @llvm.lifetime.end.p0(i64 4, ptr %18) #11
  call void @llvm.lifetime.end.p0(i64 4, ptr %17) #11
  call void @llvm.lifetime.end.p0(i64 4, ptr %16) #11
  call void @llvm.lifetime.end.p0(i64 4, ptr %15) #11
  call void @llvm.lifetime.end.p0(i64 4, ptr %14) #11
  br label %158

158:                                              ; preds = %152, %66, %5
  %159 = load i32, ptr %7, align 4
  call void @llvm.lifetime.end.p0(i64 1, ptr %13) #11
  call void @llvm.lifetime.end.p0(i64 1, ptr %12) #11
  call void @llvm.lifetime.end.p0(i64 6, ptr %11) #11
  ret i32 %159
}