; Function Attrs: null_pointer_is_valid sspstrong uwtable
define internal fastcc noundef i32 @dissect_bthci_evt_role_change(ptr noundef %0, ptr noundef %1, ptr noundef %2, ptr noundef nonnull readonly captures(none) %3) unnamed_addr #1 {
  %5 = alloca [6 x i8], align 1
  %6 = alloca i32, align 4
  %7 = alloca i32, align 4
  %8 = alloca i32, align 4
  %9 = alloca i32, align 4
  %10 = alloca i32, align 4
  %11 = alloca [6 x %struct._wmem_tree_key_t], align 16
  call void @llvm.lifetime.start.p0(i64 6, ptr nonnull %5) #9
  %12 = load i32, ptr @hf_bthci_evt_status, align 4
  %13 = tail call ptr @proto_tree_add_item(ptr noundef %2, i32 noundef %12, ptr noundef %0, i32 noundef 2, i32 noundef 1, i32 noundef -2147483648)
  %14 = tail call zeroext i8 @tvb_get_uint8(ptr noundef %0, i32 noundef 2)
  %15 = load i32, ptr @bluetooth_hci_summary_tap, align 4
  %16 = tail call zeroext i1 @have_tap_listener(i32 noundef %15)
  br i1 %16, label %17, label %send_hci_summary_status_tap.exit

17:                                               ; preds = %4
  %18 = getelementptr inbounds nuw i8, ptr %1, i64 408
  %19 = load ptr, ptr %18, align 8
  %20 = tail call noalias dereferenceable_or_null(32) ptr @wmem_alloc(ptr noundef %19, i64 noundef 32) #11
  %21 = load i32, ptr %3, align 8
  store i32 %21, ptr %20, align 8
  %22 = getelementptr inbounds nuw i8, ptr %3, i64 4
  %23 = load i32, ptr %22, align 4
  %24 = getelementptr inbounds nuw i8, ptr %20, i64 4
  store i32 %23, ptr %24, align 4
  %25 = getelementptr inbounds nuw i8, ptr %20, i64 24
  store i32 7, ptr %25, align 8
  %26 = getelementptr inbounds nuw i8, ptr %20, i64 13
  store i8 %14, ptr %26, align 1
  %27 = zext i8 %14 to i32
  %28 = tail call ptr @try_val_to_str_ext(i32 noundef %27, ptr noundef nonnull @bthci_cmd_status_vals_ext)
  %.not.i = icmp eq ptr %28, null
  br i1 %.not.i, label %31, label %29

29:                                               ; preds = %17
  %30 = tail call ptr @val_to_str_ext(i32 noundef %27, ptr noundef nonnull @bthci_cmd_status_vals_ext, ptr noundef nonnull @.str.1819)
  br label %31

31:                                               ; preds = %29, %17
  %.sink.i = phi ptr [ %30, %29 ], [ null, %17 ]
  %32 = getelementptr inbounds nuw i8, ptr %20, i64 16
  store ptr %.sink.i, ptr %32, align 8
  %33 = load i32, ptr @bluetooth_hci_summary_tap, align 4
  tail call void @tap_queue_packet(i32 noundef %33, ptr noundef %1, ptr noundef %20)
  br label %send_hci_summary_status_tap.exit

send_hci_summary_status_tap.exit:                 ; preds = %4, %31
  %34 = load i32, ptr @hf_bthci_evt_bd_addr, align 4
  %35 = load i32, ptr %3, align 8
  %36 = getelementptr inbounds nuw i8, ptr %3, i64 4
  %37 = load i32, ptr %36, align 4
  %38 = call i32 @dissect_bd_addr(i32 noundef %34, ptr noundef %1, ptr noundef %2, ptr noundef %0, i32 noundef 3, i1 noundef zeroext false, i32 noundef %35, i32 noundef %37, ptr noundef nonnull %5)
  %39 = load i32, ptr @hf_bthci_evt_role, align 4
  %40 = call ptr @proto_tree_add_item(ptr noundef %2, i32 noundef %39, ptr noundef %0, i32 noundef %38, i32 noundef 1, i32 noundef -2147483648)
  %41 = call zeroext i8 @tvb_get_uint8(ptr noundef %0, i32 noundef %38)
  %42 = getelementptr inbounds nuw i8, ptr %1, i64 80
  %43 = load ptr, ptr %42, align 8
  %44 = getelementptr inbounds nuw i8, ptr %43, i64 57
  %45 = load i16, ptr %44, align 1
  %46 = and i16 %45, 8
  %47 = icmp eq i16 %46, 0
  %48 = icmp eq i8 %14, 0
  %or.cond = and i1 %48, %47
  br i1 %or.cond, label %49, label %96

49:                                               ; preds = %send_hci_summary_status_tap.exit
  call void @llvm.lifetime.start.p0(i64 4, ptr nonnull %6) #9
  call void @llvm.lifetime.start.p0(i64 4, ptr nonnull %7) #9
  call void @llvm.lifetime.start.p0(i64 4, ptr nonnull %8) #9
  call void @llvm.lifetime.start.p0(i64 4, ptr nonnull %9) #9
  call void @llvm.lifetime.start.p0(i64 4, ptr nonnull %10) #9
  call void @llvm.lifetime.start.p0(i64 96, ptr nonnull %11) #9
  %50 = load i32, ptr %3, align 8
  store i32 %50, ptr %6, align 4
  %51 = load i32, ptr %36, align 4
  store i32 %51, ptr %7, align 4
  %52 = getelementptr inbounds nuw i8, ptr %1, i64 20
  %53 = load i32, ptr %52, align 4
  store i32 %53, ptr %10, align 4
  %54 = load i8, ptr %5, align 1
  %55 = zext i8 %54 to i32
  %56 = shl nuw nsw i32 %55, 16
  %57 = getelementptr inbounds nuw i8, ptr %5, i64 1
  %58 = load i8, ptr %57, align 1
  %59 = zext i8 %58 to i32
  %60 = shl nuw nsw i32 %59, 8
  %61 = or disjoint i32 %60, %56
  %62 = getelementptr inbounds nuw i8, ptr %5, i64 2
  %63 = load i8, ptr %62, align 1
  %64 = zext i8 %63 to i32
  %65 = or disjoint i32 %61, %64
  store i32 %65, ptr %8, align 4
  %66 = getelementptr inbounds nuw i8, ptr %5, i64 3
  %67 = load i8, ptr %66, align 1
  %68 = zext i8 %67 to i32
  %69 = shl nuw nsw i32 %68, 16
  %70 = getelementptr inbounds nuw i8, ptr %5, i64 4
  %71 = load i8, ptr %70, align 1
  %72 = zext i8 %71 to i32
  %73 = shl nuw nsw i32 %72, 8
  %74 = or disjoint i32 %73, %69
  %75 = getelementptr inbounds nuw i8, ptr %5, i64 5
  %76 = load i8, ptr %75, align 1
  %77 = zext i8 %76 to i32
  %78 = or disjoint i32 %74, %77
  store i32 %78, ptr %9, align 4
  store i32 1, ptr %11, align 16
  %79 = getelementptr inbounds nuw i8, ptr %11, i64 8
  store ptr %6, ptr %79, align 8
  %80 = getelementptr inbounds nuw i8, ptr %11, i64 16
  store i32 1, ptr %80, align 16
  %81 = getelementptr inbounds nuw i8, ptr %11, i64 24
  store ptr %7, ptr %81, align 8
  %82 = getelementptr inbounds nuw i8, ptr %11, i64 32
  store i32 1, ptr %82, align 16
  %83 = getelementptr inbounds nuw i8, ptr %11, i64 40
  store ptr %9, ptr %83, align 8
  %84 = getelementptr inbounds nuw i8, ptr %11, i64 48
  store i32 1, ptr %84, align 16
  %85 = getelementptr inbounds nuw i8, ptr %11, i64 56
  store ptr %8, ptr %85, align 8
  %86 = getelementptr inbounds nuw i8, ptr %11, i64 64
  store i32 1, ptr %86, align 16
  %87 = getelementptr inbounds nuw i8, ptr %11, i64 72
  store ptr %10, ptr %87, align 8
  %88 = getelementptr inbounds nuw i8, ptr %11, i64 80
  store i32 0, ptr %88, align 16
  %89 = getelementptr inbounds nuw i8, ptr %11, i64 88
  store ptr null, ptr %89, align 8
  %90 = call ptr @wmem_file_scope()
  %91 = call noalias dereferenceable_or_null(8) ptr @wmem_alloc(ptr noundef %90, i64 noundef 8) #11
  %92 = load i32, ptr %10, align 4
  %93 = getelementptr inbounds nuw i8, ptr %91, i64 4
  store i32 %92, ptr %93, align 4
  %switch.selectcmp = icmp eq i8 %41, 1
  %switch.select = zext i1 %switch.selectcmp to i32
  %switch.selectcmp36 = icmp eq i8 %41, 0
  %switch.select37 = select i1 %switch.selectcmp36, i32 2, i32 %switch.select
  store i32 %switch.select37, ptr %91, align 4
  %94 = getelementptr inbounds nuw i8, ptr %3, i64 64
  %95 = load ptr, ptr %94, align 8
  call void @wmem_tree_insert32_array(ptr noundef %95, ptr noundef nonnull %11, ptr noundef %91)
  call void @llvm.lifetime.end.p0(i64 96, ptr nonnull %11) #9
  call void @llvm.lifetime.end.p0(i64 4, ptr nonnull %10) #9
  call void @llvm.lifetime.end.p0(i64 4, ptr nonnull %9) #9
  call void @llvm.lifetime.end.p0(i64 4, ptr nonnull %8) #9
  call void @llvm.lifetime.end.p0(i64 4, ptr nonnull %7) #9
  call void @llvm.lifetime.end.p0(i64 4, ptr nonnull %6) #9
  br label %96

96:                                               ; preds = %49, %send_hci_summary_status_tap.exit
  %97 = add i32 %38, 1
  call void @llvm.lifetime.end.p0(i64 6, ptr nonnull %5) #9
  ret i32 %97
}